target datalayout = "e-m:e-p270:32:32-p271:32:32-p272:64:64-i64:64-i128:128-f80:128-n8:16:32:64-S128"
target triple = "x86_64-pc-linux-gnu"

%struct.ARKodeMemRec = type { ptr, double, ptr, i32, i32, double, double, ptr, i32, double, ptr, i32, i32, ptr, ptr, i32, ptr, ptr, i32, ptr, ptr, ptr, ptr, ptr, ptr, ptr, ptr, ptr, ptr, ptr, ptr, ptr, ptr, ptr, i32, ptr, ptr, i32, ptr, i32, ptr, ptr, ptr, ptr, ptr, ptr, ptr, ptr, ptr, ptr, ptr, ptr, ptr, ptr, ptr, ptr, ptr, ptr, ptr, ptr, ptr, ptr, ptr, ptr, ptr, ptr, i32, ptr, ptr, ptr, ptr, ptr, ptr, ptr, i32, ptr, ptr, ptr, i32, ptr, ptr, ptr, ptr, ptr, ptr, ptr, i32, i32, i32, i32, double, double, double, double, double, double, double, double, double, double, i32, ptr, i64, i32, i32, i32, i32, i64, i64, i32, i64, i64, i64, i64, i64, i64, i64, double, double, double, double, double, i32, double, double, i32, i32, i32, i32, i32, i32, i32, i32, ptr, i32, ptr, ptr, ptr, ptr, i32, i32, i32 }
%struct.ARKodeERKStepMemRec = type { ptr, ptr, i32, i32, i32, ptr, i64, ptr, ptr, i32, double, double, ptr, i32, ptr, ptr }

@.str = private unnamed_addr constant [123 x i8] c"generated/home/dtcxzyw/WorkSpace/Projects/compilers/llvm-opt-benchmark/bench/sundials/sundials/src/arkode/arkode_erkstep.c\00", align 1
@.str.21 = private unnamed_addr constant [33 x i8] c"Time step module memory is NULL.\00", align 1
@__func__.erkStep_SetInnerForcing = private unnamed_addr constant [24 x i8] c"erkStep_SetInnerForcing\00", align 1

; Function Attrs: nounwind uwtable
define i32 @erkStep_AccessStepMem(ptr noundef %0, ptr noundef %1, ptr noundef %2) #0 {
  %4 = alloca i32, align 4
  %5 = alloca ptr, align 8
  %6 = alloca ptr, align 8
  %7 = alloca ptr, align 8
  store ptr %0, ptr %5, align 8, !tbaa !15
  store ptr %1, ptr %6, align 8, !tbaa !115
  store ptr %2, ptr %7, align 8, !tbaa !119
  %8 = load ptr, ptr %5, align 8, !tbaa !15
  %9 = getelementptr inbounds nuw %struct.ARKodeMemRec, ptr %8, i32 0, i32 19
  %10 = load ptr, ptr %9, align 8, !tbaa !41
  %11 = icmp eq ptr %10, null
  br i1 %11, label %12, label %15

12:                                               ; preds = %3
  %13 = load ptr, ptr %5, align 8, !tbaa !15
  %14 = load ptr, ptr %6, align 8, !tbaa !115
  call void (ptr, i32, i32, ptr, ptr, ptr, ...) @arkProcessError(ptr noundef %13, i32 noundef -21, i32 noundef 908, ptr noundef %14, ptr noundef @.str, ptr noundef @.str.21)
  store i32 -21, ptr %4, align 4
  br label %20

15:                                               ; preds = %3
  %16 = load ptr, ptr %5, align 8, !tbaa !15
  %17 = getelementptr inbounds nuw %struct.ARKodeMemRec, ptr %16, i32 0, i32 19
  %18 = load ptr, ptr %17, align 8, !tbaa !41
  %19 = load ptr, ptr %7, align 8, !tbaa !119
  store ptr %18, ptr %19, align 8, !tbaa !17
  store i32 0, ptr %4, align 4
  br label %20

20:                                               ; preds = %15, %12
  %21 = load i32, ptr %4, align 4
  ret i32 %21
}

; Function Attrs: nounwind uwtable
define i32 @erkStep_SetInnerForcing(ptr noundef %0, double noundef %1, double noundef %2, ptr noundef %3, i32 noundef %4) #0 {
  %6 = alloca i32, align 4
  %7 = alloca ptr, align 8
  %8 = alloca double, align 8
  %9 = alloca double, align 8
  %10 = alloca ptr, align 8
  %11 = alloca i32, align 4
  %12 = alloca ptr, align 8
  %13 = alloca i32, align 4
  %14 = alloca i32, align 4
  store ptr %0, ptr %7, align 8, !tbaa !15
  store double %1, ptr %8, align 8, !tbaa !7
  store double %2, ptr %9, align 8, !tbaa !7
  store ptr %3, ptr %10, align 8, !tbaa !90
  store i32 %4, ptr %11, align 4, !tbaa !13
  call void @llvm.lifetime.start.p0(i64 8, ptr %12) #8
  call void @llvm.lifetime.start.p0(i64 4, ptr %13) #8
  %15 = load ptr, ptr %7, align 8, !tbaa !15
  %16 = call i32 @erkStep_AccessStepMem(ptr noundef %15, ptr noundef @__func__.erkStep_SetInnerForcing, ptr noundef %12)
  store i32 %16, ptr %13, align 4, !tbaa !13
  %17 = load i32, ptr %13, align 4, !tbaa !13
  %18 = icmp ne i32 %17, 0
  br i1 %18, label %19, label %21

19:                                               ; preds = %5
  %20 = load i32, ptr %13, align 4, !tbaa !13
  store i32 %20, ptr %6, align 4
  store i32 1, ptr %14, align 4
  br label %158

21:                                               ; preds = %5
  %22 = load i32, ptr %11, align 4, !tbaa !13
  %23 = icmp sgt i32 %22, 0
  br i1 %23, label %24, label %148

24:                                               ; preds = %21
  %25 = load double, ptr %8, align 8, !tbaa !7
  %26 = load ptr, ptr %12, align 8, !tbaa !17
  %27 = getelementptr inbounds nuw %struct.ARKodeERKStepMemRec, ptr %26, i32 0, i32 10
  store double %25, ptr %27, align 8, !tbaa !112
  %28 = load double, ptr %9, align 8, !tbaa !7
  %29 = load ptr, ptr %12, align 8, !tbaa !17
  %30 = getelementptr inbounds nuw %struct.ARKodeERKStepMemRec, ptr %29, i32 0, i32 11
  store double %28, ptr %30, align 8, !tbaa !113
  %31 = load ptr, ptr %10, align 8, !tbaa !90
  %32 = load ptr, ptr %12, align 8, !tbaa !17
  %33 = getelementptr inbounds nuw %struct.ARKodeERKStepMemRec, ptr %32, i32 0, i32 12
  store ptr %31, ptr %33, align 8, !tbaa !53
  %34 = load i32, ptr %11, align 4, !tbaa !13
  %35 = load ptr, ptr %12, align 8, !tbaa !17
  %36 = getelementptr inbounds nuw %struct.ARKodeERKStepMemRec, ptr %35, i32 0, i32 13
  store i32 %34, ptr %36, align 8, !tbaa !54
  %37 = load ptr, ptr %12, align 8, !tbaa !17
  %38 = getelementptr inbounds nuw %struct.ARKodeERKStepMemRec, ptr %37, i32 0, i32 7
  %39 = load ptr, ptr %38, align 8, !tbaa !50
  %40 = icmp ne ptr %39, null
  br i1 %40, label %41, label %147

41:                                               ; preds = %24
  %42 = load ptr, ptr %12, align 8, !tbaa !17
  %43 = getelementptr inbounds nuw %struct.ARKodeERKStepMemRec, ptr %42, i32 0, i32 8
  %44 = load ptr, ptr %43, align 8, !tbaa !51
  %45 = icmp ne ptr %44, null
  br i1 %45, label %46, label %147

46:                                               ; preds = %41
  %47 = load ptr, ptr %12, align 8, !tbaa !17
  %48 = getelementptr inbounds nuw %struct.ARKodeERKStepMemRec, ptr %47, i32 0, i32 9
  %49 = load i32, ptr %48, align 8, !tbaa !52
  %50 = load i32, ptr %11, align 4, !tbaa !13
  %51 = sub nsw i32 %49, %50
  %52 = load ptr, ptr %12, align 8, !tbaa !17
  %53 = getelementptr inbounds nuw %struct.ARKodeERKStepMemRec, ptr %52, i32 0, i32 4
  %54 = load i32, ptr %53, align 8, !tbaa !83
  %55 = add nsw i32 %54, 1
  %56 = icmp slt i32 %51, %55
  br i1 %56, label %57, label %146

57:                                               ; preds = %46
  %58 = load ptr, ptr %12, align 8, !tbaa !17
  %59 = getelementptr inbounds nuw %struct.ARKodeERKStepMemRec, ptr %58, i32 0, i32 7
  %60 = load ptr, ptr %59, align 8, !tbaa !50
  %61 = icmp ne ptr %60, null
  br i1 %61, label %62, label %74

62:                                               ; preds = %57
  %63 = load ptr, ptr %12, align 8, !tbaa !17
  %64 = getelementptr inbounds nuw %struct.ARKodeERKStepMemRec, ptr %63, i32 0, i32 7
  %65 = load ptr, ptr %64, align 8, !tbaa !50
  call void @free(ptr noundef %65) #8
  %66 = load ptr, ptr %12, align 8, !tbaa !17
  %67 = getelementptr inbounds nuw %struct.ARKodeERKStepMemRec, ptr %66, i32 0, i32 9
  %68 = load i32, ptr %67, align 8, !tbaa !52
  %69 = sext i32 %68 to i64
  %70 = load ptr, ptr %7, align 8, !tbaa !15
  %71 = getelementptr inbounds nuw %struct.ARKodeMemRec, ptr %70, i32 0, i32 115
  %72 = load i64, ptr %71, align 8, !tbaa !48
  %73 = sub nsw i64 %72, %69
  store i64 %73, ptr %71, align 8, !tbaa !48
  br label %74

74:                                               ; preds = %62, %57
  %75 = load ptr, ptr %12, align 8, !tbaa !17
  %76 = getelementptr inbounds nuw %struct.ARKodeERKStepMemRec, ptr %75, i32 0, i32 8
  %77 = load ptr, ptr %76, align 8, !tbaa !51
  %78 = icmp ne ptr %77, null
  br i1 %78, label %79, label %91

79:                                               ; preds = %74
  %80 = load ptr, ptr %12, align 8, !tbaa !17
  %81 = getelementptr inbounds nuw %struct.ARKodeERKStepMemRec, ptr %80, i32 0, i32 8
  %82 = load ptr, ptr %81, align 8, !tbaa !51
  call void @free(ptr noundef %82) #8
  %83 = load ptr, ptr %12, align 8, !tbaa !17
  %84 = getelementptr inbounds nuw %struct.ARKodeERKStepMemRec, ptr %83, i32 0, i32 9
  %85 = load i32, ptr %84, align 8, !tbaa !52
  %86 = sext i32 %85 to i64
  %87 = load ptr, ptr %7, align 8, !tbaa !15
  %88 = getelementptr inbounds nuw %struct.ARKodeMemRec, ptr %87, i32 0, i32 116
  %89 = load i64, ptr %88, align 8, !tbaa !47
  %90 = sub nsw i64 %89, %86
  store i64 %90, ptr %88, align 8, !tbaa !47
  br label %91

91:                                               ; preds = %79, %74
  %92 = load ptr, ptr %12, align 8, !tbaa !17
  %93 = getelementptr inbounds nuw %struct.ARKodeERKStepMemRec, ptr %92, i32 0, i32 4
  %94 = load i32, ptr %93, align 8, !tbaa !83
  %95 = add nsw i32 %94, 1
  %96 = load i32, ptr %11, align 4, !tbaa !13
  %97 = add nsw i32 %95, %96
  %98 = load ptr, ptr %12, align 8, !tbaa !17
  %99 = getelementptr inbounds nuw %struct.ARKodeERKStepMemRec, ptr %98, i32 0, i32 9
  store i32 %97, ptr %99, align 8, !tbaa !52
  %100 = load ptr, ptr %12, align 8, !tbaa !17
  %101 = getelementptr inbounds nuw %struct.ARKodeERKStepMemRec, ptr %100, i32 0, i32 7
  store ptr null, ptr %101, align 8, !tbaa !50
  %102 = load ptr, ptr %12, align 8, !tbaa !17
  %103 = getelementptr inbounds nuw %struct.ARKodeERKStepMemRec, ptr %102, i32 0, i32 9
  %104 = load i32, ptr %103, align 8, !tbaa !52
  %105 = sext i32 %104 to i64
  %106 = call noalias ptr @calloc(i64 noundef %105, i64 noundef 8) #10
  %107 = load ptr, ptr %12, align 8, !tbaa !17
  %108 = getelementptr inbounds nuw %struct.ARKodeERKStepMemRec, ptr %107, i32 0, i32 7
  store ptr %106, ptr %108, align 8, !tbaa !50
  %109 = load ptr, ptr %12, align 8, !tbaa !17
  %110 = getelementptr inbounds nuw %struct.ARKodeERKStepMemRec, ptr %109, i32 0, i32 7
  %111 = load ptr, ptr %110, align 8, !tbaa !50
  %112 = icmp eq ptr %111, null
  br i1 %112, label %113, label %114

113:                                              ; preds = %91
  store i32 -20, ptr %6, align 4
  store i32 1, ptr %14, align 4
  br label %158

114:                                              ; preds = %91
  %115 = load ptr, ptr %12, align 8, !tbaa !17
  %116 = getelementptr inbounds nuw %struct.ARKodeERKStepMemRec, ptr %115, i32 0, i32 9
  %117 = load i32, ptr %116, align 8, !tbaa !52
  %118 = sext i32 %117 to i64
  %119 = load ptr, ptr %7, align 8, !tbaa !15
  %120 = getelementptr inbounds nuw %struct.ARKodeMemRec, ptr %119, i32 0, i32 115
  %121 = load i64, ptr %120, align 8, !tbaa !48
  %122 = add nsw i64 %121, %118
  store i64 %122, ptr %120, align 8, !tbaa !48
  %123 = load ptr, ptr %12, align 8, !tbaa !17
  %124 = getelementptr inbounds nuw %struct.ARKodeERKStepMemRec, ptr %123, i32 0, i32 8
  store ptr null, ptr %124, align 8, !tbaa !51
  %125 = load ptr, ptr %12, align 8, !tbaa !17
  %126 = getelementptr inbounds nuw %struct.ARKodeERKStepMemRec, ptr %125, i32 0, i32 9
  %127 = load i32, ptr %126, align 8, !tbaa !52
  %128 = sext i32 %127 to i64
  %129 = call noalias ptr @calloc(i64 noundef %128, i64 noundef 8) #10
  %130 = load ptr, ptr %12, align 8, !tbaa !17
  %131 = getelementptr inbounds nuw %struct.ARKodeERKStepMemRec, ptr %130, i32 0, i32 8
  store ptr %129, ptr %131, align 8, !tbaa !51
  %132 = load ptr, ptr %12, align 8, !tbaa !17
  %133 = getelementptr inbounds nuw %struct.ARKodeERKStepMemRec, ptr %132, i32 0, i32 8
  %134 = load ptr, ptr %133, align 8, !tbaa !51
  %135 = icmp eq ptr %134, null
  br i1 %135, label %136, label %137

136:                                              ; preds = %114
  store i32 -20, ptr %6, align 4
  store i32 1, ptr %14, align 4
  br label %158

137:                                              ; preds = %114
  %138 = load ptr, ptr %12, align 8, !tbaa !17
  %139 = getelementptr inbounds nuw %struct.ARKodeERKStepMemRec, ptr %138, i32 0, i32 9
  %140 = load i32, ptr %139, align 8, !tbaa !52
  %141 = sext i32 %140 to i64
  %142 = load ptr, ptr %7, align 8, !tbaa !15
  %143 = getelementptr inbounds nuw %struct.ARKodeMemRec, ptr %142, i32 0, i32 116
  %144 = load i64, ptr %143, align 8, !tbaa !47
  %145 = add nsw i64 %144, %141
  store i64 %145, ptr %143, align 8, !tbaa !47
  br label %146

146:                                              ; preds = %137, %46
  br label %147

147:                                              ; preds = %146, %41, %24
  br label %157

148:                                              ; preds = %21
  %149 = load ptr, ptr %12, align 8, !tbaa !17
  %150 = getelementptr inbounds nuw %struct.ARKodeERKStepMemRec, ptr %149, i32 0, i32 10
  store double 0.000000e+00, ptr %150, align 8, !tbaa !112
  %151 = load ptr, ptr %12, align 8, !tbaa !17
  %152 = getelementptr inbounds nuw %struct.ARKodeERKStepMemRec, ptr %151, i32 0, i32 11
  store double 1.000000e+00, ptr %152, align 8, !tbaa !113
  %153 = load ptr, ptr %12, align 8, !tbaa !17
  %154 = getelementptr inbounds nuw %struct.ARKodeERKStepMemRec, ptr %153, i32 0, i32 12
  store ptr null, ptr %154, align 8, !tbaa !53
  %155 = load ptr, ptr %12, align 8, !tbaa !17
  %156 = getelementptr inbounds nuw %struct.ARKodeERKStepMemRec, ptr %155, i32 0, i32 13
  store i32 0, ptr %156, align 8, !tbaa !54
  br label %157

157:                                              ; preds = %148, %147
  store i32 0, ptr %6, align 4
  store i32 1, ptr %14, align 4
  br label %158

158:                                              ; preds = %157, %136, %113, %19
  call void @llvm.lifetime.end.p0(i64 4, ptr %13) #8
  call void @llvm.lifetime.end.p0(i64 8, ptr %12) #8
  %159 = load i32, ptr %6, align 4
  ret i32 %159
}