; Function Attrs: nounwind uwtable
define range(i32 -21, 1) i32 @erkStep_SetInnerForcing(ptr noundef %0, double noundef %1, double noundef %2, ptr noundef %3, i32 noundef %4) #0 {
  %6 = getelementptr inbounds nuw i8, ptr %0, i64 136
  %7 = load ptr, ptr %6, align 8, !tbaa !44
  %8 = icmp eq ptr %7, null
  br i1 %8, label %erkStep_AccessStepMem.exit, label %9

erkStep_AccessStepMem.exit:                       ; preds = %5
  tail call void (ptr, i32, i32, ptr, ptr, ptr, ...) @arkProcessError(ptr noundef nonnull %0, i32 noundef -21, i32 noundef 908, ptr noundef nonnull @__func__.erkStep_SetInnerForcing, ptr noundef nonnull @.str, ptr noundef nonnull @.str.21) #12
  br label %57

9:                                                ; preds = %5
  %10 = icmp sgt i32 %4, 0
  %11 = getelementptr inbounds nuw i8, ptr %7, i64 72
  %12 = getelementptr inbounds nuw i8, ptr %7, i64 80
  %13 = getelementptr inbounds nuw i8, ptr %7, i64 88
  %14 = getelementptr inbounds nuw i8, ptr %7, i64 96
  br i1 %10, label %15, label %56

15:                                               ; preds = %9
  store double %1, ptr %11, align 8, !tbaa !86
  store double %2, ptr %12, align 8, !tbaa !87
  store ptr %3, ptr %13, align 8, !tbaa !52
  store i32 %4, ptr %14, align 8, !tbaa !53
  %16 = getelementptr inbounds nuw i8, ptr %7, i64 48
  %17 = load ptr, ptr %16, align 8, !tbaa !75
  %.not18 = icmp eq ptr %17, null
  br i1 %.not18, label %57, label %18

18:                                               ; preds = %15
  %19 = getelementptr inbounds nuw i8, ptr %7, i64 56
  %20 = load ptr, ptr %19, align 8, !tbaa !76
  %.not19 = icmp eq ptr %20, null
  br i1 %.not19, label %57, label %21

21:                                               ; preds = %18
  %22 = getelementptr inbounds nuw i8, ptr %7, i64 64
  %23 = load i32, ptr %22, align 8, !tbaa !74
  %24 = sub nsw i32 %23, %4
  %25 = getelementptr inbounds nuw i8, ptr %7, i64 24
  %26 = load i32, ptr %25, align 8, !tbaa !72
  %.not20 = icmp sgt i32 %24, %26
  br i1 %.not20, label %57, label %27

27:                                               ; preds = %21
  tail call void @free(ptr noundef nonnull %17) #12
  %28 = load i32, ptr %22, align 8, !tbaa !74
  %29 = sext i32 %28 to i64
  %30 = getelementptr inbounds nuw i8, ptr %0, i64 872
  %31 = load i64, ptr %30, align 8, !tbaa !51
  %32 = sub nsw i64 %31, %29
  store i64 %32, ptr %30, align 8, !tbaa !51
  %33 = load ptr, ptr %19, align 8, !tbaa !76
  %.not21 = icmp eq ptr %33, null
  br i1 %.not21, label %40, label %34

34:                                               ; preds = %27
  tail call void @free(ptr noundef nonnull %33) #12
  %35 = load i32, ptr %22, align 8, !tbaa !74
  %36 = sext i32 %35 to i64
  %37 = getelementptr inbounds nuw i8, ptr %0, i64 880
  %38 = load i64, ptr %37, align 8, !tbaa !50
  %39 = sub nsw i64 %38, %36
  store i64 %39, ptr %37, align 8, !tbaa !50
  br label %40

40:                                               ; preds = %34, %27
  %41 = load i32, ptr %25, align 8, !tbaa !72
  %42 = add nuw i32 %4, 1
  %43 = add i32 %42, %41
  store i32 %43, ptr %22, align 8, !tbaa !74
  %44 = sext i32 %43 to i64
  %45 = tail call noalias ptr @calloc(i64 noundef %44, i64 noundef 8) #13
  store ptr %45, ptr %16, align 8, !tbaa !75
  %46 = icmp eq ptr %45, null
  br i1 %46, label %57, label %47

47:                                               ; preds = %40
  %48 = load i64, ptr %30, align 8, !tbaa !51
  %49 = add nsw i64 %48, %44
  store i64 %49, ptr %30, align 8, !tbaa !51
  %50 = tail call noalias ptr @calloc(i64 noundef %44, i64 noundef 8) #13
  store ptr %50, ptr %19, align 8, !tbaa !76
  %51 = icmp eq ptr %50, null
  br i1 %51, label %57, label %52

52:                                               ; preds = %47
  %53 = getelementptr inbounds nuw i8, ptr %0, i64 880
  %54 = load i64, ptr %53, align 8, !tbaa !50
  %55 = add nsw i64 %54, %44
  store i64 %55, ptr %53, align 8, !tbaa !50
  br label %57

56:                                               ; preds = %9
  store double 0.000000e+00, ptr %11, align 8, !tbaa !86
  store double 1.000000e+00, ptr %12, align 8, !tbaa !87
  store ptr null, ptr %13, align 8, !tbaa !52
  store i32 0, ptr %14, align 8, !tbaa !53
  br label %57

57:                                               ; preds = %erkStep_AccessStepMem.exit, %56, %21, %52, %18, %15, %47, %40
  %.0 = phi i32 [ -21, %erkStep_AccessStepMem.exit ], [ -20, %40 ], [ -20, %47 ], [ 0, %15 ], [ 0, %18 ], [ 0, %52 ], [ 0, %21 ], [ 0, %56 ]
  ret i32 %.0
}